; Function Attrs: mustprogress nounwind uwtable
define hidden noundef ptr @_ZN5JVMCI16compilation_tickEP10JavaThread(ptr noundef returned %0) local_unnamed_addr #0 align 2 {
  %2 = load ptr, ptr %0, align 8
  %3 = getelementptr inbounds i8, ptr %2, i64 64
  %4 = load ptr, ptr %3, align 8
  %5 = tail call noundef zeroext i1 %4(ptr noundef nonnull align 8 dereferenceable(888) %0) #13
  br i1 %5, label %6, label %13

6:                                                ; preds = %1
  %7 = getelementptr inbounds i8, ptr %0, i64 1824
  %8 = load volatile ptr, ptr %7, align 8
  %.not = icmp eq ptr %8, null
  br i1 %.not, label %13, label %9

9:                                                ; preds = %6
  %10 = getelementptr inbounds i8, ptr %8, i64 72
  %11 = load ptr, ptr %10, align 8
  %.not8 = icmp eq ptr %11, null
  br i1 %.not8, label %13, label %12

12:                                               ; preds = %9
  tail call void @_ZN17JVMCICompileState21inc_compilation_ticksEv(ptr noundef nonnull align 8 dereferenceable(48) %11) #13
  br label %13

13:                                               ; preds = %6, %12, %9, %1
  ret ptr %0
}